; Function Attrs: mustprogress nofree norecurse nosync nounwind willreturn memory(read, inaccessiblemem: none) uwtable
define range(i32 0, 2) i32 @have_custom_cols(ptr noundef readonly %0) local_unnamed_addr #8 {
  %.not = icmp eq ptr %0, null
  br i1 %.not, label %9, label %2

2:                                                ; preds = %1
  %3 = getelementptr inbounds nuw i8, ptr %0, i64 24
  %4 = load ptr, ptr %3, align 8
  %5 = getelementptr i8, ptr %4, i64 16
  %6 = load i32, ptr %5, align 4
  %7 = icmp sgt i32 %6, -1
  %8 = zext i1 %7 to i32
  br label %9

9:                                                ; preds = %2, %1
  %10 = phi i32 [ 0, %1 ], [ %8, %2 ]
  ret i32 %10
}